target datalayout = "e-m:e-p270:32:32-p271:32:32-p272:64:64-i64:64-i128:128-f80:128-n8:16:32:64-S128"
target triple = "x86_64-unknown-linux-gnu"

%class.ast_pp_util = type { ptr, %class.obj_hashtable, %class.smt2_pp_environment_dbg, %class.stacked_value, %class.stacked_value, %class.stacked_value, %class.obj_mark, %class.ref_vector, %class.svector, %class.decl_collector }
%class.obj_hashtable = type { %class.core_hashtable.base, [4 x i8] }
%class.core_hashtable.base = type <{ ptr, i32, i32, i32 }>
%class.smt2_pp_environment_dbg = type { %class.smt2_pp_environment, ptr, %class.arith_util, %class.bv_util, %class.array_util, %class.fpa_util, %class.seq_util, %"class.datatype::util", %"class.datalog::dl_decl_util" }
%class.smt2_pp_environment = type { ptr, %class.smt_renaming }
%class.smt_renaming = type { %class.map, %class.map.2 }
%class.map = type { %class.table2map }
%class.table2map = type { %class.core_hashtable.0 }
%class.core_hashtable.0 = type <{ ptr, i32, i32, i32, [4 x i8] }>
%class.map.2 = type { %class.table2map.3 }
%class.table2map.3 = type { %class.core_hashtable.4 }
%class.core_hashtable.4 = type <{ ptr, i32, i32, i32, [4 x i8] }>
%class.arith_util = type { ptr, ptr }
%class.bv_util = type { %class.bv_recognizers, ptr, ptr }
%class.bv_recognizers = type { i32 }
%class.array_util = type { %class.array_recognizers, ptr }
%class.array_recognizers = type { i32 }
%class.fpa_util = type { ptr, ptr, i32, %class.arith_util, %class.bv_util }
%class.seq_util = type { ptr, ptr, ptr, i32, [4 x i8], %"class.seq_util::str", %"class.seq_util::rex" }
%"class.seq_util::str" = type <{ ptr, ptr, i32, [4 x i8] }>
%"class.seq_util::rex" = type { ptr, ptr, i32, %class.vector, %class.ref_vector, %"struct.seq_util::rex::info", %"struct.seq_util::rex::info" }
%class.vector = type { ptr }
%"struct.seq_util::rex::info" = type { i32, i8, i32, i32 }
%"class.datatype::util" = type { ptr, i32, ptr, %class.obj_map, %class.obj_map.9, %class.obj_map.14, %class.obj_map.19, %class.obj_map.19, %class.obj_map.19, %class.obj_map.24, %class.obj_map.24, %class.obj_map.24, %class.ref_vector.29, %class.ref_vector_core.34, %class.ptr_vector.37, i32, %class.ptr_vector.39 }
%class.obj_map = type { %class.core_hashtable.7 }
%class.core_hashtable.7 = type <{ ptr, i32, i32, i32, [4 x i8] }>
%class.obj_map.9 = type { %class.core_hashtable.10 }
%class.core_hashtable.10 = type <{ ptr, i32, i32, i32, [4 x i8] }>
%class.obj_map.14 = type { %class.core_hashtable.15 }
%class.core_hashtable.15 = type <{ ptr, i32, i32, i32, [4 x i8] }>
%class.obj_map.19 = type { %class.core_hashtable.20 }
%class.core_hashtable.20 = type <{ ptr, i32, i32, i32, [4 x i8] }>
%class.obj_map.24 = type { %class.core_hashtable.25 }
%class.core_hashtable.25 = type <{ ptr, i32, i32, i32, [4 x i8] }>
%class.ref_vector.29 = type { %class.ref_vector_core.30 }
%class.ref_vector_core.30 = type { %class.ref_manager_wrapper.31, %class.ptr_vector.32 }
%class.ref_manager_wrapper.31 = type { ptr }
%class.ptr_vector.32 = type { %class.vector.33 }
%class.vector.33 = type { ptr }
%class.ref_vector_core.34 = type { %class.ptr_vector.35 }
%class.ptr_vector.35 = type { %class.vector.36 }
%class.vector.36 = type { ptr }
%class.ptr_vector.37 = type { %class.vector.38 }
%class.vector.38 = type { ptr }
%class.ptr_vector.39 = type { %class.vector.40 }
%class.vector.40 = type { ptr }
%"class.datalog::dl_decl_util" = type <{ ptr, %class.scoped_ptr, %class.scoped_ptr.41, i32, [4 x i8] }>
%class.scoped_ptr = type { ptr }
%class.scoped_ptr.41 = type { ptr }
%class.stacked_value = type { i32, %class.vector.42 }
%class.vector.42 = type { ptr }
%class.obj_mark = type { %struct.default_t2uint, %class.bit_vector }
%struct.default_t2uint = type { i8 }
%class.bit_vector = type { i32, i32, ptr }
%class.ref_vector = type { %class.ref_vector_core }
%class.ref_vector_core = type { %class.ref_manager_wrapper, %class.ptr_vector }
%class.ref_manager_wrapper = type { ptr }
%class.ptr_vector = type { %class.vector.6 }
%class.vector.6 = type { ptr }
%class.svector = type { %class.vector.43 }
%class.vector.43 = type { ptr }
%class.decl_collector = type { ptr, %class.lim_svector, %class.lim_svector.45, %class.lim_svector.45, %class.ast_mark, %class.ref_vector.29, %class.svector, i32, i32, %"class.datatype::util", %class.array_util, i32, %class.ptr_vector.32 }
%class.lim_svector = type { %class.svector.44, %class.svector }
%class.svector.44 = type { %class.vector.40 }
%class.lim_svector.45 = type { %class.svector.46, %class.svector }
%class.svector.46 = type { %class.vector.47 }
%class.vector.47 = type { ptr }
%class.ast_mark = type { ptr, %class.obj_mark, %class.obj_mark.48 }
%class.obj_mark.48 = type { %"struct.ast_mark::decl2uint", %class.bit_vector }
%"struct.ast_mark::decl2uint" = type { i8 }

; Function Attrs: mustprogress uwtable
define linkonce_odr hidden void @_ZN14core_hashtableI14obj_hash_entryI9func_declE12obj_ptr_hashIS1_E6ptr_eqIS1_EE6insertERKPS1_(ptr noundef nonnull align 8 dereferenceable(20) %this, ptr noundef nonnull align 8 dereferenceable(8) %e) #4 comdat align 2 {
entry:
  %this.addr = alloca ptr, align 8
  %e.addr = alloca ptr, align 8
  %tmp = alloca ptr, align 8
  store ptr %this, ptr %this.addr, align 8
  store ptr %e, ptr %e.addr, align 8
  %this1 = load ptr, ptr %this.addr, align 8
  %0 = load ptr, ptr %e.addr, align 8
  %1 = load ptr, ptr %0, align 8
  store ptr %1, ptr %tmp, align 8
  call void @_ZN14core_hashtableI14obj_hash_entryI9func_declE12obj_ptr_hashIS1_E6ptr_eqIS1_EE6insertEOPS1_(ptr noundef nonnull align 8 dereferenceable(20) %this1, ptr noundef nonnull align 8 dereferenceable(8) %tmp)
  ret void
}

; Function Attrs: mustprogress uwtable
define hidden void @_ZN11ast_pp_util11remove_declEP9func_decl(ptr noundef nonnull align 8 dereferenceable(1232) %this, ptr noundef %f) #4 align 2 {
entry:
  %this.addr = alloca ptr, align 8
  %f.addr = alloca ptr, align 8
  store ptr %this, ptr %this.addr, align 8
  store ptr %f, ptr %f.addr, align 8
  %this1 = load ptr, ptr %this.addr, align 8
  %m_removed = getelementptr inbounds %class.ast_pp_util, ptr %this1, i32 0, i32 1
  call void @_ZN14core_hashtableI14obj_hash_entryI9func_declE12obj_ptr_hashIS1_E6ptr_eqIS1_EE6insertERKPS1_(ptr noundef nonnull align 8 dereferenceable(20) %m_removed, ptr noundef nonnull align 8 dereferenceable(8) %f.addr)
  ret void
}