; Function Attrs: mustprogress uwtable
define hidden void @_ZN11ast_pp_util11remove_declEP9func_decl(ptr noundef nonnull align 8 dereferenceable(1232) %this, ptr noundef %f) local_unnamed_addr #3 align 2 {
entry:
  %tmp.i = alloca ptr, align 8
  %m_removed = getelementptr inbounds i8, ptr %this, i64 8
  call void @llvm.lifetime.start.p0(i64 8, ptr nonnull %tmp.i)
  store ptr %f, ptr %tmp.i, align 8
  call void @_ZN14core_hashtableI14obj_hash_entryI9func_declE12obj_ptr_hashIS1_E6ptr_eqIS1_EE6insertEOPS1_(ptr noundef nonnull align 8 dereferenceable(20) %m_removed, ptr noundef nonnull align 8 dereferenceable(8) %tmp.i)
  call void @llvm.lifetime.end.p0(i64 8, ptr nonnull %tmp.i)
  ret void
}